	.section	__TEXT,__text,regular,pure_instructions
	.build_version macos, 12, 0	sdk_version 12, 0
	.globl	_XorCrypto                      ## -- Begin function XorCrypto
	.p2align	4, 0x90
_XorCrypto:                             ## @XorCrypto
	.cfi_startproc
## %bb.0:
	pushq	%rbp
	.cfi_def_cfa_offset 16
	.cfi_offset %rbp, -16
	movq	%rsp, %rbp
	.cfi_def_cfa_register %rbp
	subq	$48, %rsp
	movq	%rdi, -8(%rbp)
	movq	%rsi, -16(%rbp)
	movl	%edx, -20(%rbp)
	movl	%ecx, -24(%rbp)
	movslq	-20(%rbp), %rdi
	shlq	$0, %rdi
	callq	_malloc
	movq	%rax, -32(%rbp)
	movl	$0, -36(%rbp)
LBB0_1:                                 ## =>This Inner Loop Header: Depth=1
	movl	-36(%rbp), %eax
	cmpl	-20(%rbp), %eax
	jge	LBB0_4
## %bb.2:                               ##   in Loop: Header=BB0_1 Depth=1
	movq	-8(%rbp), %rax
	movslq	-36(%rbp), %rcx
	movsbl	(%rax,%rcx), %eax
	movl	%eax, -40(%rbp)                 ## 4-byte Spill
	movq	-16(%rbp), %rcx
	movl	-36(%rbp), %eax
	cltd
	idivl	-24(%rbp)
	movl	-40(%rbp), %eax                 ## 4-byte Reload
	movslq	%edx, %rdx
	movsbl	(%rcx,%rdx), %ecx
	xorl	%ecx, %eax
	movb	%al, %dl
	movq	-32(%rbp), %rax
	movslq	-36(%rbp), %rcx
	movb	%dl, (%rax,%rcx)
## %bb.3:                               ##   in Loop: Header=BB0_1 Depth=1
	movl	-36(%rbp), %eax
	addl	$1, %eax
	movl	%eax, -36(%rbp)
	jmp	LBB0_1
LBB0_4:
	movq	-32(%rbp), %rax
	addq	$48, %rsp
	popq	%rbp
	retq
	.cfi_endproc
                                        ## -- End function
	.globl	_main                           ## -- Begin function main
	.p2align	4, 0x90
_main:                                  ## @main
	.cfi_startproc
## %bb.0:
	pushq	%rbp
	.cfi_def_cfa_offset 16
	.cfi_offset %rbp, -16
	movq	%rsp, %rbp
	.cfi_def_cfa_register %rbp
	subq	$112, %rsp
	movq	___stack_chk_guard@GOTPCREL(%rip), %rax
	movq	(%rax), %rax
	movq	%rax, -8(%rbp)
	movl	$0, -44(%rbp)
	leaq	_buffer(%rip), %rax
	movq	%rax, -56(%rbp)
	movq	-56(%rbp), %rdi
	callq	_strlen
                                        ## kill: def $eax killed $eax killed $rax
	movl	%eax, -84(%rbp)
	movq	-64(%rbp), %rdi
	callq	_strlen
                                        ## kill: def $eax killed $eax killed $rax
	movl	%eax, -88(%rbp)
	movq	-56(%rbp), %rdi
	movq	-64(%rbp), %rsi
	movl	-84(%rbp), %edx
	movl	-88(%rbp), %ecx
	callq	_XorCrypto
	xorl	%edx, %edx
	movq	%rax, -96(%rbp)
	movl	$2, %edi
	movl	$1, %esi
	callq	_socket
	xorl	%esi, %esi
	movl	%eax, -72(%rbp)
	leaq	-24(%rbp), %rdi
	movl	$16, %edx
	callq	_memset
	movl	$0, -20(%rbp)
	movb	$2, -23(%rbp)
	movw	$10275, -22(%rbp)               ## imm = 0x2823
	movl	-72(%rbp), %edi
	leaq	-24(%rbp), %rsi
	movl	$16, %edx
	callq	_bind
	cmpl	$-1, %eax
	jne	LBB1_2
## %bb.1:
	leaq	L_.str(%rip), %rdi
	movb	$0, %al
	callq	_printf
	movl	$-1, -44(%rbp)
	jmp	LBB1_6
LBB1_2:
	movl	-72(%rbp), %edi
	movl	$5, %esi
	callq	_listen
	cmpl	$-1, %eax
	jne	LBB1_4
## %bb.3:
	leaq	L_.str.1(%rip), %rdi
	movb	$0, %al
	callq	_printf
	movl	$-1, -44(%rbp)
	jmp	LBB1_6
LBB1_4:
	jmp	LBB1_5
LBB1_5:                                 ## =>This Inner Loop Header: Depth=1
	movl	$16, -76(%rbp)
	movl	-72(%rbp), %edi
	leaq	-40(%rbp), %rsi
	leaq	-76(%rbp), %rdx
	callq	_accept
	movl	%eax, -68(%rbp)
	movq	-96(%rbp), %rdi
	callq	_strlen
                                        ## kill: def $eax killed $eax killed $rax
	movl	%eax, -80(%rbp)
	movl	-68(%rbp), %edi
	movq	-96(%rbp), %rsi
	movslq	-80(%rbp), %rdx
	callq	_write
	movl	-68(%rbp), %edi
	callq	_close
	jmp	LBB1_5
LBB1_6:
	movl	-44(%rbp), %eax
	movl	%eax, -100(%rbp)                ## 4-byte Spill
	movq	___stack_chk_guard@GOTPCREL(%rip), %rax
	movq	(%rax), %rax
	movq	-8(%rbp), %rcx
	cmpq	%rcx, %rax
	jne	LBB1_8
## %bb.7:
	movl	-100(%rbp), %eax                ## 4-byte Reload
	addq	$112, %rsp
	popq	%rbp
	retq
LBB1_8:
	callq	___stack_chk_fail
	ud2
	.cfi_endproc
                                        ## -- End function
	.section	__DATA,__data
	.globl	_buffer                         ## @buffer
	.p2align	4
_buffer:
	.asciz	"My Server\000\000\000\000\000\000\000\000\000\000\000\000\000\000\000\000\000\000\000\000\000\000\000\000\000\000\000\000\000\000\000\000\000\000\000\000\000\000\000\000\000\000\000\000\000\000\000\000\000\000\000\000\000\000\000\000\000\000\000\000\000\000\000\000\000\000\000\000\000\000\000\000\000\000\000\000\000\000\000\000\000\000\000\000\000\000\000\000\000\000\000\000\000\000\000\000\000\000\000\000\000\000\000\000\000\000\000\000\000\000\000\000\000\000\000\000\000\000\000\000\000\000\000\000\000\000\000\000\000\000\000\000\000\000\000\000\000\000\000\000\000\000\000\000\000\000\000\000\000\000\000\000\000\000\000\000\000\000\000\000\000\000\000\000\000\000\000\000\000\000\000\000\000\000\000\000\000\000\000\000\000\000\000\000\000\000\000\000\000\000\000\000\000\000\000\000\000\000\000\000\000\000\000\000\000\000\000\000\000\000\000\000\000\000\000\000\000\000\000\000\000\000\000\000\000\000\000\000\000\000\000\000\000\000\000\000\000\000\000\000\000\000\000\000\000\000\000\000\000\000\000\000\000\000\000\000\000\000\000\000\000\000\000\000\000\000\000\000\000\000\000\000\000\000\000\000\000\000\000\000\000\000\000\000\000\000\000\000\000\000\000\000\000\000\000\000\000\000\000\000\000\000\000\000\000\000\000\000\000\000\000\000\000\000\000\000\000\000\000\000\000\000\000\000\000\000\000\000\000\000\000\000\000\000\000\000\000\000\000\000\000\000\000\000\000\000\000\000\000\000\000\000\000\000\000\000\000\000\000\000\000\000\000\000\000\000\000\000\000\000\000\000\000\000\000\000\000\000\000\000\000\000\000\000\000\000\000\000\000\000\000\000\000\000\000\000\000\000\000\000\000\000\000\000\000\000\000\000\000\000\000\000\000\000\000\000\000\000\000\000\000\000\000\000\000\000\000\000\000\000\000\000\000\000\000\000\000\000\000\000\000\000\000\000\000\000\000\000\000\000\000\000\000\000\000\000\000\000\000\000\000\000\000\000\000\000\000\000\000\000\000\000\000\000\000\000\000\000\000\000\000\000\000\000\000\000\000\000\000\000\000\000\000\000\000\000\000\000\000\000\000\000\000\000\000\000\000\000\000\000\000\000\000\000\000\000\000\000\000\000\000\000\000\000\000\000\000\000\000\000\000\000\000\000\000\000\000\000\000\000\000\000\000\000\000\000\000\000\000\000\000\000\000\000\000\000\000\000\000\000\000\000\000\000\000\000\000\000\000\000\000\000\000\000\000\000\000\000\000\000\000\000\000\000\000\000\000\000\000\000\000\000\000\000\000\000\000\000\000\000\000\000\000\000\000\000\000\000\000\000\000\000\000\000\000\000\000\000\000\000\000\000\000\000\000\000\000\000\000\000\000\000\000\000\000\000\000\000\000\000\000\000\000\000\000\000\000\000\000\000\000\000\000\000\000\000\000\000\000\000\000\000\000\000\000\000\000\000\000\000\000\000\000\000\000\000\000\000\000\000\000\000\000\000\000\000\000\000\000\000\000\000\000\000\000\000\000\000\000\000\000\000\000\000\000\000\000\000\000\000\000\000\000\000\000\000\000\000\000\000\000\000\000\000\000\000\000\000\000\000\000\000\000\000\000\000\000\000\000\000\000\000\000\000\000\000\000\000\000\000\000\000\000\000\000\000\000\000\000\000\000\000\000\000\000\000\000\000\000\000\000\000\000\000\000\000\000\000\000\000\000\000\000\000\000\000\000\000\000\000\000\000\000\000\000\000\000\000\000\000\000\000\000\000\000\000\000\000\000\000\000\000\000\000\000\000\000\000\000\000\000\000\000\000\000\000\000\000\000\000\000\000\000\000\000\000\000\000\000\000\000\000\000\000\000\000\000\000\000\000\000\000\000\000\000\000\000\000\000\000\000\000\000\000\000\000\000\000\000\000\000\000\000\000\000\000\000\000\000\000\000\000\000\000\000\000\000\000\000\000\000\000\000\000\000\000\000\000\000\000\000\000\000\000\000\000\000\000\000\000\000\000\000\000\000\000\000\000\000\000\000\000\000\000\000\000\000\000\000\000\000\000\000\000\000\000\000\000\000\000\000\000\000\000\000\000\000\000\000\000\000\000\000\000\000\000\000\000\000\000\000\000\000\000\000\000\000\000\000\000\000\000\000\000\000\000\000\000\000\000\000\000\000\000\000\000\000\000\000\000\000\000\000\000\000\000\000\000\000\000\000\000\000\000\000\000\000\000\000\000\000\000\000\000"

	.section	__TEXT,__cstring,cstring_literals
L_.str:                                 ## @.str
	.asciz	"Can not bind\n"

L_.str.1:                               ## @.str.1
	.asciz	"Listen Fail\n"

.subsections_via_symbols
